; Function Attrs: nounwind uwtable
define ptr @Cudd_addCmpl(ptr noundef initializes((448, 452)) %0, ptr noundef %1) #0 {
  %3 = getelementptr inbounds nuw i8, ptr %0, i64 448
  br label %4

4:                                                ; preds = %4, %2
  store i32 0, ptr %3, align 8, !tbaa !3
  %5 = tail call ptr @cuddAddCmplRecur(ptr noundef %0, ptr noundef %1)
  %6 = load i32, ptr %3, align 8, !tbaa !3
  %7 = icmp eq i32 %6, 1
  br i1 %7, label %4, label %8, !llvm.loop !34

8:                                                ; preds = %4
  ret ptr %5
}